; Function Attrs: nounwind uwtable
define internal fastcc noundef i32 @ct_eval_isset_isempty(ptr nocapture noundef writeonly %0, i32 noundef %1, ptr noundef %2) unnamed_addr #0 {
  %4 = and i32 %1, 1
  %.not = icmp eq i32 %4, 0
  %.not11 = icmp eq ptr %2, null
  br i1 %.not, label %5, label %10

5:                                                ; preds = %3
  br i1 %.not11, label %ct_eval_bool_cast.exit.sink.split, label %6

6:                                                ; preds = %5
  %7 = getelementptr inbounds i8, ptr %2, i64 8
  %8 = load i8, ptr %7, align 8
  %.not12 = icmp eq i8 %8, 1
  %9 = select i1 %.not12, i32 2, i32 3
  br label %ct_eval_bool_cast.exit.sink.split

10:                                               ; preds = %3
  br i1 %.not11, label %ct_eval_bool_cast.exit.sink.split, label %11

11:                                               ; preds = %10
  %12 = getelementptr inbounds i8, ptr %2, i64 8
  %13 = load i8, ptr %12, align 8
  %14 = icmp eq i8 %13, -3
  br i1 %14, label %15, label %20

15:                                               ; preds = %11
  %16 = load ptr, ptr %2, align 8
  %17 = getelementptr inbounds i8, ptr %16, i64 28
  %18 = load i32, ptr %17, align 4
  %19 = icmp eq i32 %18, 0
  br i1 %19, label %ct_eval_bool_cast.exit, label %ct_eval_bool_cast.exit.sink.split

20:                                               ; preds = %11
  %21 = tail call i32 @zend_is_true(ptr noundef nonnull %2) #13
  %.not.i = icmp eq i32 %21, 0
  %22 = select i1 %.not.i, i32 3, i32 2
  br label %ct_eval_bool_cast.exit.sink.split

ct_eval_bool_cast.exit.sink.split:                ; preds = %20, %15, %10, %5, %6
  %.sink.i.sink = phi i32 [ 2, %5 ], [ %9, %6 ], [ 3, %10 ], [ %22, %20 ], [ 2, %15 ]
  %23 = getelementptr inbounds i8, ptr %0, i64 8
  store i32 %.sink.i.sink, ptr %23, align 8
  br label %ct_eval_bool_cast.exit

ct_eval_bool_cast.exit:                           ; preds = %ct_eval_bool_cast.exit.sink.split, %15
  %.0 = phi i32 [ -1, %15 ], [ 0, %ct_eval_bool_cast.exit.sink.split ]
  ret i32 %.0
}